#include <math.h>
#include <stdio.h>
#include <stdlib.h>
#include <string.h>
#include <iostream>
using namespace std;

//????
int main()
{
	int a[100]={0},temp,n;
	int i,j;//????

	cin>>n;
	for(i=0;i<n;i++)
		cin>>a[i];

	for(i=0,j=n-1;i<j;i++,j--)//?????i>=j
	{
		temp=a[i];
		a[i]=a[j];
		a[j]=temp;
	}

	for(i=0;i<n-1;i++)
		cout<<a[i]<<" ";

	cout<<a[n-1];

	
	return 0;

}